ARM GAS  C:\Users\Anton\AppData\Local\Temp\cc09pmzc.s 			page 1


   1              		.syntax unified
   2              		.cpu cortex-m3
   3              		.fpu softvfp
   4              		.eabi_attribute 20, 1
   5              		.eabi_attribute 21, 1
   6              		.eabi_attribute 23, 3
   7              		.eabi_attribute 24, 1
   8              		.eabi_attribute 25, 1
   9              		.eabi_attribute 26, 1
  10              		.eabi_attribute 30, 1
  11              		.eabi_attribute 34, 1
  12              		.eabi_attribute 18, 4
  13              		.thumb
  14              		.syntax unified
  15              		.file	"main.c"
  16              		.text
  17              	.Ltext0:
  18              		.cfi_sections	.debug_frame
  19              		.section	.text.main,"ax",%progbits
  20              		.align	2
  21              		.global	main
  22              		.thumb
  23              		.thumb_func
  24              		.type	main, %function
  25              	main:
  26              	.LFB63:
  27              		.file 1 "main.c"
   1:main.c        **** /* ========================================
   2:main.c        ****  *
   3:main.c        ****  * Copyright YOUR COMPANY, THE YEAR
   4:main.c        ****  * All Rights Reserved
   5:main.c        ****  * UNPUBLISHED, LICENSED SOFTWARE.
   6:main.c        ****  *
   7:main.c        ****  * CONFIDENTIAL AND PROPRIETARY INFORMATION
   8:main.c        ****  * WHICH IS THE PROPERTY OF your company.
   9:main.c        ****  *
  10:main.c        ****  * ========================================
  11:main.c        **** */
  12:main.c        **** #include "project.h"
  13:main.c        **** 
  14:main.c        **** CY_ISR_PROTO(ISR_UART_rx_handler);
  15:main.c        **** void handleByteReceived(uint8_t byteReceived);
  16:main.c        **** void decreaseSpeed(void);
  17:main.c        **** void increaseSpeed(void);
  18:main.c        **** void driveForwards(void);
  19:main.c        **** void driveBackwards(void);
  20:main.c        **** void stop(void);
  21:main.c        **** 
  22:main.c        **** int main(void)
  23:main.c        **** {
  28              		.loc 1 23 0
  29              		.cfi_startproc
  30              		@ Volatile: function does not return.
  31              		@ args = 0, pretend = 0, frame = 0
  32              		@ frame_needed = 0, uses_anonymous_args = 0
  33 0000 08B5     		push	{r3, lr}
  34              		.cfi_def_cfa_offset 8
ARM GAS  C:\Users\Anton\AppData\Local\Temp\cc09pmzc.s 			page 2


  35              		.cfi_offset 3, -8
  36              		.cfi_offset 14, -4
  24:main.c        ****     CyGlobalIntEnable; /* Enable global interrupts. */
  37              		.loc 1 24 0
  38              		.syntax unified
  39              	@ 24 "main.c" 1
  40 0002 62B6     		CPSIE   i
  41              	@ 0 "" 2
  25:main.c        **** 
  26:main.c        ****     /* Place your initialization/startup code here (e.g. MyInst_Start()) */
  27:main.c        ****     isr_uart_rx_StartEx(ISR_UART_rx_handler);
  42              		.loc 1 27 0
  43              		.thumb
  44              		.syntax unified
  45 0004 0C48     		ldr	r0, .L4
  46 0006 FFF7FEFF 		bl	isr_uart_rx_StartEx
  47              	.LVL0:
  28:main.c        ****     UART_1_Start();
  48              		.loc 1 28 0
  49 000a FFF7FEFF 		bl	UART_1_Start
  50              	.LVL1:
  29:main.c        ****     PWM_1_Start();
  51              		.loc 1 29 0
  52 000e FFF7FEFF 		bl	PWM_1_Start
  53              	.LVL2:
  30:main.c        ****     
  31:main.c        ****     UART_1_PutString("DC-Motor-PWM application started\r\n");
  54              		.loc 1 31 0
  55 0012 0A48     		ldr	r0, .L4+4
  56 0014 FFF7FEFF 		bl	UART_1_PutString
  57              	.LVL3:
  32:main.c        ****     UART_1_PutString("0: Stop\r\n");
  58              		.loc 1 32 0
  59 0018 0948     		ldr	r0, .L4+8
  60 001a FFF7FEFF 		bl	UART_1_PutString
  61              	.LVL4:
  33:main.c        ****     UART_1_PutString("1: Drive forwards\r\n");
  62              		.loc 1 33 0
  63 001e 0948     		ldr	r0, .L4+12
  64 0020 FFF7FEFF 		bl	UART_1_PutString
  65              	.LVL5:
  34:main.c        ****     UART_1_PutString("2: Drive backwards\r\n");
  66              		.loc 1 34 0
  67 0024 0848     		ldr	r0, .L4+16
  68 0026 FFF7FEFF 		bl	UART_1_PutString
  69              	.LVL6:
  35:main.c        ****     UART_1_PutString("q: Decrease speed\r\n");
  70              		.loc 1 35 0
  71 002a 0848     		ldr	r0, .L4+20
  72 002c FFF7FEFF 		bl	UART_1_PutString
  73              	.LVL7:
  36:main.c        ****     UART_1_PutString("w: Increase speed\r\n");
  74              		.loc 1 36 0
  75 0030 0748     		ldr	r0, .L4+24
  76 0032 FFF7FEFF 		bl	UART_1_PutString
  77              	.LVL8:
  78              	.L2:
ARM GAS  C:\Users\Anton\AppData\Local\Temp\cc09pmzc.s 			page 3


  79 0036 FEE7     		b	.L2
  80              	.L5:
  81              		.align	2
  82              	.L4:
  83 0038 00000000 		.word	ISR_UART_rx_handler
  84 003c 00000000 		.word	.LC0
  85 0040 24000000 		.word	.LC1
  86 0044 30000000 		.word	.LC2
  87 0048 44000000 		.word	.LC3
  88 004c 5C000000 		.word	.LC4
  89 0050 70000000 		.word	.LC5
  90              		.cfi_endproc
  91              	.LFE63:
  92              		.size	main, .-main
  93              		.section	.text.decreaseSpeed,"ax",%progbits
  94              		.align	2
  95              		.global	decreaseSpeed
  96              		.thumb
  97              		.thumb_func
  98              		.type	decreaseSpeed, %function
  99              	decreaseSpeed:
 100              	.LFB66:
  37:main.c        **** 
  38:main.c        ****     for(;;)
  39:main.c        ****     {
  40:main.c        ****         /* Place your application code here. */
  41:main.c        ****     }
  42:main.c        **** }
  43:main.c        **** 
  44:main.c        **** CY_ISR(ISR_UART_rx_handler)
  45:main.c        **** {
  46:main.c        ****     uint8_t bytesToRead = UART_1_GetRxBufferSize();
  47:main.c        ****     while (bytesToRead > 0)
  48:main.c        ****     {
  49:main.c        ****         uint8_t byteReceived = UART_1_ReadRxData();
  50:main.c        ****         UART_1_WriteTxData(byteReceived); // echo back
  51:main.c        ****         
  52:main.c        ****         handleByteReceived(byteReceived);
  53:main.c        ****         
  54:main.c        ****         bytesToRead--;
  55:main.c        ****     }
  56:main.c        **** }
  57:main.c        **** 
  58:main.c        **** void handleByteReceived(uint8_t byteReceived)
  59:main.c        **** {
  60:main.c        ****     switch(byteReceived)
  61:main.c        ****     {
  62:main.c        ****         case 'q' :
  63:main.c        ****         {
  64:main.c        ****             decreaseSpeed();
  65:main.c        ****         }
  66:main.c        ****         break;
  67:main.c        ****         case 'w' :
  68:main.c        ****         {
  69:main.c        ****             increaseSpeed();
  70:main.c        ****         }
  71:main.c        ****         break;
ARM GAS  C:\Users\Anton\AppData\Local\Temp\cc09pmzc.s 			page 4


  72:main.c        ****         case '1' :
  73:main.c        ****         {
  74:main.c        ****             driveForwards();
  75:main.c        ****         }
  76:main.c        ****         break;
  77:main.c        ****         case '2' :
  78:main.c        ****         {
  79:main.c        ****             driveBackwards();
  80:main.c        ****         }
  81:main.c        ****         break;
  82:main.c        ****         case '0' :
  83:main.c        ****         {
  84:main.c        ****             stop();
  85:main.c        ****             
  86:main.c        ****         }
  87:main.c        ****         break;
  88:main.c        ****         default :
  89:main.c        ****         {
  90:main.c        ****             // nothing
  91:main.c        ****         }
  92:main.c        ****         break;
  93:main.c        ****     }
  94:main.c        **** }
  95:main.c        **** 
  96:main.c        **** void decreaseSpeed()
  97:main.c        **** {
 101              		.loc 1 97 0
 102              		.cfi_startproc
 103              		@ args = 0, pretend = 0, frame = 0
 104              		@ frame_needed = 0, uses_anonymous_args = 0
 105 0000 10B5     		push	{r4, lr}
 106              		.cfi_def_cfa_offset 8
 107              		.cfi_offset 4, -8
 108              		.cfi_offset 14, -4
  98:main.c        ****     uint8 duty = PWM_1_ReadCompare();
 109              		.loc 1 98 0
 110 0002 FFF7FEFF 		bl	PWM_1_ReadCompare
 111              	.LVL9:
  99:main.c        ****     if(duty > 0)
 112              		.loc 1 99 0
 113 0006 0446     		mov	r4, r0
 114 0008 10B1     		cbz	r0, .L7
 100:main.c        ****     {
 101:main.c        ****         UART_1_PutString("Decreasing speed\r\n");
 115              		.loc 1 101 0
 116 000a 0C48     		ldr	r0, .L12
 117              	.LVL10:
 118 000c FFF7FEFF 		bl	UART_1_PutString
 119              	.LVL11:
 120              	.L7:
 102:main.c        ****     }
 103:main.c        ****     if(duty >= 100)
 121              		.loc 1 103 0
 122 0010 632C     		cmp	r4, #99
 123 0012 03D9     		bls	.L8
 104:main.c        ****     {
 105:main.c        ****         PWM_1_WriteCompare(90);
ARM GAS  C:\Users\Anton\AppData\Local\Temp\cc09pmzc.s 			page 5


 124              		.loc 1 105 0
 125 0014 5A20     		movs	r0, #90
 126 0016 FFF7FEFF 		bl	PWM_1_WriteCompare
 127              	.LVL12:
 128 001a 10BD     		pop	{r4, pc}
 129              	.L8:
 106:main.c        ****         
 107:main.c        ****     }
 108:main.c        ****     else if(duty > 10)
 130              		.loc 1 108 0
 131 001c 0A2C     		cmp	r4, #10
 132 001e 05D9     		bls	.L10
 109:main.c        ****     {
 110:main.c        ****         PWM_1_WriteCompare(duty - 10);
 133              		.loc 1 110 0
 134 0020 A4F10A00 		sub	r0, r4, #10
 135 0024 C0B2     		uxtb	r0, r0
 136 0026 FFF7FEFF 		bl	PWM_1_WriteCompare
 137              	.LVL13:
 138 002a 10BD     		pop	{r4, pc}
 139              	.L10:
 111:main.c        ****     }
 112:main.c        ****     else
 113:main.c        ****     {
 114:main.c        ****         UART_1_PutString("Min speed achieved\r\n");
 140              		.loc 1 114 0
 141 002c 0448     		ldr	r0, .L12+4
 142 002e FFF7FEFF 		bl	UART_1_PutString
 143              	.LVL14:
 115:main.c        ****         PWM_1_WriteCompare(0);
 144              		.loc 1 115 0
 145 0032 0020     		movs	r0, #0
 146 0034 FFF7FEFF 		bl	PWM_1_WriteCompare
 147              	.LVL15:
 148 0038 10BD     		pop	{r4, pc}
 149              	.L13:
 150 003a 00BF     		.align	2
 151              	.L12:
 152 003c 84000000 		.word	.LC6
 153 0040 98000000 		.word	.LC7
 154              		.cfi_endproc
 155              	.LFE66:
 156              		.size	decreaseSpeed, .-decreaseSpeed
 157              		.section	.text.increaseSpeed,"ax",%progbits
 158              		.align	2
 159              		.global	increaseSpeed
 160              		.thumb
 161              		.thumb_func
 162              		.type	increaseSpeed, %function
 163              	increaseSpeed:
 164              	.LFB67:
 116:main.c        ****     }
 117:main.c        **** }
 118:main.c        **** 
 119:main.c        **** void increaseSpeed()
 120:main.c        **** {
 165              		.loc 1 120 0
ARM GAS  C:\Users\Anton\AppData\Local\Temp\cc09pmzc.s 			page 6


 166              		.cfi_startproc
 167              		@ args = 0, pretend = 0, frame = 0
 168              		@ frame_needed = 0, uses_anonymous_args = 0
 169 0000 10B5     		push	{r4, lr}
 170              		.cfi_def_cfa_offset 8
 171              		.cfi_offset 4, -8
 172              		.cfi_offset 14, -4
 121:main.c        ****     uint8 duty = PWM_1_ReadCompare();
 173              		.loc 1 121 0
 174 0002 FFF7FEFF 		bl	PWM_1_ReadCompare
 175              	.LVL16:
 176 0006 0446     		mov	r4, r0
 177              	.LVL17:
 122:main.c        ****     if(duty < 101)
 178              		.loc 1 122 0
 179 0008 6428     		cmp	r0, #100
 180 000a 02D8     		bhi	.L15
 123:main.c        ****     {
 124:main.c        ****         UART_1_PutString("Increasing speed\r\n");
 181              		.loc 1 124 0
 182 000c 0848     		ldr	r0, .L19
 183              	.LVL18:
 184 000e FFF7FEFF 		bl	UART_1_PutString
 185              	.LVL19:
 186              	.L15:
 125:main.c        ****     }
 126:main.c        ****     if(duty < 90)
 187              		.loc 1 126 0
 188 0012 592C     		cmp	r4, #89
 189 0014 05D8     		bhi	.L16
 127:main.c        ****     {
 128:main.c        ****         PWM_1_WriteCompare(duty + 10);
 190              		.loc 1 128 0
 191 0016 04F10A00 		add	r0, r4, #10
 192 001a C0B2     		uxtb	r0, r0
 193 001c FFF7FEFF 		bl	PWM_1_WriteCompare
 194              	.LVL20:
 195 0020 10BD     		pop	{r4, pc}
 196              	.L16:
 129:main.c        ****     }
 130:main.c        ****     else
 131:main.c        ****     {
 132:main.c        ****         UART_1_PutString("Max speed achieved\r\n");
 197              		.loc 1 132 0
 198 0022 0448     		ldr	r0, .L19+4
 199 0024 FFF7FEFF 		bl	UART_1_PutString
 200              	.LVL21:
 133:main.c        ****         PWM_1_WriteCompare(101);
 201              		.loc 1 133 0
 202 0028 6520     		movs	r0, #101
 203 002a FFF7FEFF 		bl	PWM_1_WriteCompare
 204              	.LVL22:
 205 002e 10BD     		pop	{r4, pc}
 206              	.L20:
 207              		.align	2
 208              	.L19:
 209 0030 B0000000 		.word	.LC8
ARM GAS  C:\Users\Anton\AppData\Local\Temp\cc09pmzc.s 			page 7


 210 0034 C4000000 		.word	.LC9
 211              		.cfi_endproc
 212              	.LFE67:
 213              		.size	increaseSpeed, .-increaseSpeed
 214              		.section	.text.driveForwards,"ax",%progbits
 215              		.align	2
 216              		.global	driveForwards
 217              		.thumb
 218              		.thumb_func
 219              		.type	driveForwards, %function
 220              	driveForwards:
 221              	.LFB68:
 134:main.c        ****     }
 135:main.c        **** }
 136:main.c        **** 
 137:main.c        **** void driveForwards()
 138:main.c        **** {
 222              		.loc 1 138 0
 223              		.cfi_startproc
 224              		@ args = 0, pretend = 0, frame = 0
 225              		@ frame_needed = 0, uses_anonymous_args = 0
 226 0000 08B5     		push	{r3, lr}
 227              		.cfi_def_cfa_offset 8
 228              		.cfi_offset 3, -8
 229              		.cfi_offset 14, -4
 139:main.c        ****     UART_1_PutString("Set direction: forwards\r\n");
 230              		.loc 1 139 0
 231 0002 0348     		ldr	r0, .L23
 232 0004 FFF7FEFF 		bl	UART_1_PutString
 233              	.LVL23:
 140:main.c        ****     PWM_1_Start();
 234              		.loc 1 140 0
 235 0008 FFF7FEFF 		bl	PWM_1_Start
 236              	.LVL24:
 237 000c 08BD     		pop	{r3, pc}
 238              	.L24:
 239 000e 00BF     		.align	2
 240              	.L23:
 241 0010 DC000000 		.word	.LC10
 242              		.cfi_endproc
 243              	.LFE68:
 244              		.size	driveForwards, .-driveForwards
 245              		.section	.text.driveBackwards,"ax",%progbits
 246              		.align	2
 247              		.global	driveBackwards
 248              		.thumb
 249              		.thumb_func
 250              		.type	driveBackwards, %function
 251              	driveBackwards:
 252              	.LFB69:
 141:main.c        **** }
 142:main.c        **** 
 143:main.c        **** void driveBackwards()
 144:main.c        **** {
 253              		.loc 1 144 0
 254              		.cfi_startproc
 255              		@ args = 0, pretend = 0, frame = 0
ARM GAS  C:\Users\Anton\AppData\Local\Temp\cc09pmzc.s 			page 8


 256              		@ frame_needed = 0, uses_anonymous_args = 0
 257 0000 08B5     		push	{r3, lr}
 258              		.cfi_def_cfa_offset 8
 259              		.cfi_offset 3, -8
 260              		.cfi_offset 14, -4
 145:main.c        ****     UART_1_PutString("Set direction: backwards\r\n");
 261              		.loc 1 145 0
 262 0002 0248     		ldr	r0, .L27
 263 0004 FFF7FEFF 		bl	UART_1_PutString
 264              	.LVL25:
 265 0008 08BD     		pop	{r3, pc}
 266              	.L28:
 267 000a 00BF     		.align	2
 268              	.L27:
 269 000c F8000000 		.word	.LC11
 270              		.cfi_endproc
 271              	.LFE69:
 272              		.size	driveBackwards, .-driveBackwards
 273              		.section	.text.stop,"ax",%progbits
 274              		.align	2
 275              		.global	stop
 276              		.thumb
 277              		.thumb_func
 278              		.type	stop, %function
 279              	stop:
 280              	.LFB70:
 146:main.c        **** }
 147:main.c        **** 
 148:main.c        **** void stop()
 149:main.c        **** {
 281              		.loc 1 149 0
 282              		.cfi_startproc
 283              		@ args = 0, pretend = 0, frame = 0
 284              		@ frame_needed = 0, uses_anonymous_args = 0
 285 0000 08B5     		push	{r3, lr}
 286              		.cfi_def_cfa_offset 8
 287              		.cfi_offset 3, -8
 288              		.cfi_offset 14, -4
 150:main.c        ****     UART_1_PutString("Stop\r\n");
 289              		.loc 1 150 0
 290 0002 0348     		ldr	r0, .L31
 291 0004 FFF7FEFF 		bl	UART_1_PutString
 292              	.LVL26:
 151:main.c        ****     PWM_1_Stop();
 293              		.loc 1 151 0
 294 0008 FFF7FEFF 		bl	PWM_1_Stop
 295              	.LVL27:
 296 000c 08BD     		pop	{r3, pc}
 297              	.L32:
 298 000e 00BF     		.align	2
 299              	.L31:
 300 0010 14010000 		.word	.LC12
 301              		.cfi_endproc
 302              	.LFE70:
 303              		.size	stop, .-stop
 304              		.section	.text.handleByteReceived,"ax",%progbits
 305              		.align	2
ARM GAS  C:\Users\Anton\AppData\Local\Temp\cc09pmzc.s 			page 9


 306              		.global	handleByteReceived
 307              		.thumb
 308              		.thumb_func
 309              		.type	handleByteReceived, %function
 310              	handleByteReceived:
 311              	.LFB65:
  59:main.c        ****     switch(byteReceived)
 312              		.loc 1 59 0
 313              		.cfi_startproc
 314              		@ args = 0, pretend = 0, frame = 0
 315              		@ frame_needed = 0, uses_anonymous_args = 0
 316              	.LVL28:
 317 0000 08B5     		push	{r3, lr}
 318              		.cfi_def_cfa_offset 8
 319              		.cfi_offset 3, -8
 320              		.cfi_offset 14, -4
  60:main.c        ****     {
 321              		.loc 1 60 0
 322 0002 3228     		cmp	r0, #50
 323 0004 13D0     		beq	.L35
 324 0006 04D8     		bhi	.L36
 325 0008 3028     		cmp	r0, #48
 326 000a 13D0     		beq	.L37
 327 000c 3128     		cmp	r0, #49
 328 000e 0BD0     		beq	.L38
 329 0010 08BD     		pop	{r3, pc}
 330              	.L36:
 331 0012 7128     		cmp	r0, #113
 332 0014 02D0     		beq	.L39
 333 0016 7728     		cmp	r0, #119
 334 0018 03D0     		beq	.L40
 335 001a 08BD     		pop	{r3, pc}
 336              	.L39:
  64:main.c        ****         }
 337              		.loc 1 64 0
 338 001c FFF7FEFF 		bl	decreaseSpeed
 339              	.LVL29:
  66:main.c        ****         case 'w' :
 340              		.loc 1 66 0
 341 0020 08BD     		pop	{r3, pc}
 342              	.LVL30:
 343              	.L40:
  69:main.c        ****         }
 344              		.loc 1 69 0
 345 0022 FFF7FEFF 		bl	increaseSpeed
 346              	.LVL31:
  71:main.c        ****         case '1' :
 347              		.loc 1 71 0
 348 0026 08BD     		pop	{r3, pc}
 349              	.LVL32:
 350              	.L38:
  74:main.c        ****         }
 351              		.loc 1 74 0
 352 0028 FFF7FEFF 		bl	driveForwards
 353              	.LVL33:
  76:main.c        ****         case '2' :
 354              		.loc 1 76 0
ARM GAS  C:\Users\Anton\AppData\Local\Temp\cc09pmzc.s 			page 10


 355 002c 08BD     		pop	{r3, pc}
 356              	.LVL34:
 357              	.L35:
  79:main.c        ****         }
 358              		.loc 1 79 0
 359 002e FFF7FEFF 		bl	driveBackwards
 360              	.LVL35:
  81:main.c        ****         case '0' :
 361              		.loc 1 81 0
 362 0032 08BD     		pop	{r3, pc}
 363              	.LVL36:
 364              	.L37:
  84:main.c        ****             
 365              		.loc 1 84 0
 366 0034 FFF7FEFF 		bl	stop
 367              	.LVL37:
 368 0038 08BD     		pop	{r3, pc}
 369              		.cfi_endproc
 370              	.LFE65:
 371              		.size	handleByteReceived, .-handleByteReceived
 372 003a 00BF     		.section	.text.ISR_UART_rx_handler,"ax",%progbits
 373              		.align	2
 374              		.global	ISR_UART_rx_handler
 375              		.thumb
 376              		.thumb_func
 377              		.type	ISR_UART_rx_handler, %function
 378              	ISR_UART_rx_handler:
 379              	.LFB64:
  45:main.c        ****     uint8_t bytesToRead = UART_1_GetRxBufferSize();
 380              		.loc 1 45 0
 381              		.cfi_startproc
 382              		@ args = 0, pretend = 0, frame = 0
 383              		@ frame_needed = 0, uses_anonymous_args = 0
 384 0000 38B5     		push	{r3, r4, r5, lr}
 385              		.cfi_def_cfa_offset 16
 386              		.cfi_offset 3, -16
 387              		.cfi_offset 4, -12
 388              		.cfi_offset 5, -8
 389              		.cfi_offset 14, -4
  46:main.c        ****     while (bytesToRead > 0)
 390              		.loc 1 46 0
 391 0002 FFF7FEFF 		bl	UART_1_GetRxBufferSize
 392              	.LVL38:
 393 0006 0446     		mov	r4, r0
 394              	.LVL39:
  47:main.c        ****     {
 395              		.loc 1 47 0
 396 0008 09E0     		b	.L43
 397              	.L44:
 398              	.LBB2:
  49:main.c        ****         UART_1_WriteTxData(byteReceived); // echo back
 399              		.loc 1 49 0
 400 000a FFF7FEFF 		bl	UART_1_ReadRxData
 401              	.LVL40:
 402 000e 0546     		mov	r5, r0
 403              	.LVL41:
  50:main.c        ****         
ARM GAS  C:\Users\Anton\AppData\Local\Temp\cc09pmzc.s 			page 11


 404              		.loc 1 50 0
 405 0010 FFF7FEFF 		bl	UART_1_WriteTxData
 406              	.LVL42:
  52:main.c        ****         
 407              		.loc 1 52 0
 408 0014 2846     		mov	r0, r5
 409 0016 FFF7FEFF 		bl	handleByteReceived
 410              	.LVL43:
  54:main.c        ****     }
 411              		.loc 1 54 0
 412 001a 013C     		subs	r4, r4, #1
 413              	.LVL44:
 414 001c E4B2     		uxtb	r4, r4
 415              	.LVL45:
 416              	.L43:
 417              	.LBE2:
  47:main.c        ****     {
 418              		.loc 1 47 0
 419 001e 002C     		cmp	r4, #0
 420 0020 F3D1     		bne	.L44
  56:main.c        **** 
 421              		.loc 1 56 0
 422 0022 38BD     		pop	{r3, r4, r5, pc}
 423              		.cfi_endproc
 424              	.LFE64:
 425              		.size	ISR_UART_rx_handler, .-ISR_UART_rx_handler
 426              		.section	.rodata.str1.4,"aMS",%progbits,1
 427              		.align	2
 428              	.LC0:
 429 0000 44432D4D 		.ascii	"DC-Motor-PWM application started\015\012\000"
 429      6F746F72 
 429      2D50574D 
 429      20617070 
 429      6C696361 
 430 0023 00       		.space	1
 431              	.LC1:
 432 0024 303A2053 		.ascii	"0: Stop\015\012\000"
 432      746F700D 
 432      0A00
 433 002e 0000     		.space	2
 434              	.LC2:
 435 0030 313A2044 		.ascii	"1: Drive forwards\015\012\000"
 435      72697665 
 435      20666F72 
 435      77617264 
 435      730D0A00 
 436              	.LC3:
 437 0044 323A2044 		.ascii	"2: Drive backwards\015\012\000"
 437      72697665 
 437      20626163 
 437      6B776172 
 437      64730D0A 
 438 0059 000000   		.space	3
 439              	.LC4:
 440 005c 713A2044 		.ascii	"q: Decrease speed\015\012\000"
 440      65637265 
 440      61736520 
ARM GAS  C:\Users\Anton\AppData\Local\Temp\cc09pmzc.s 			page 12


 440      73706565 
 440      640D0A00 
 441              	.LC5:
 442 0070 773A2049 		.ascii	"w: Increase speed\015\012\000"
 442      6E637265 
 442      61736520 
 442      73706565 
 442      640D0A00 
 443              	.LC6:
 444 0084 44656372 		.ascii	"Decreasing speed\015\012\000"
 444      65617369 
 444      6E672073 
 444      70656564 
 444      0D0A00
 445 0097 00       		.space	1
 446              	.LC7:
 447 0098 4D696E20 		.ascii	"Min speed achieved\015\012\000"
 447      73706565 
 447      64206163 
 447      68696576 
 447      65640D0A 
 448 00ad 000000   		.space	3
 449              	.LC8:
 450 00b0 496E6372 		.ascii	"Increasing speed\015\012\000"
 450      65617369 
 450      6E672073 
 450      70656564 
 450      0D0A00
 451 00c3 00       		.space	1
 452              	.LC9:
 453 00c4 4D617820 		.ascii	"Max speed achieved\015\012\000"
 453      73706565 
 453      64206163 
 453      68696576 
 453      65640D0A 
 454 00d9 000000   		.space	3
 455              	.LC10:
 456 00dc 53657420 		.ascii	"Set direction: forwards\015\012\000"
 456      64697265 
 456      6374696F 
 456      6E3A2066 
 456      6F727761 
 457 00f6 0000     		.space	2
 458              	.LC11:
 459 00f8 53657420 		.ascii	"Set direction: backwards\015\012\000"
 459      64697265 
 459      6374696F 
 459      6E3A2062 
 459      61636B77 
 460 0113 00       		.space	1
 461              	.LC12:
 462 0114 53746F70 		.ascii	"Stop\015\012\000"
 462      0D0A00
 463              		.text
 464              	.Letext0:
 465              		.file 2 "c:\\program files (x86)\\cypress\\psoc creator\\4.2\\psoc creator\\import\\gnu\\arm\\5.4.
 466              		.file 3 "c:\\program files (x86)\\cypress\\psoc creator\\4.2\\psoc creator\\import\\gnu\\arm\\5.4.
ARM GAS  C:\Users\Anton\AppData\Local\Temp\cc09pmzc.s 			page 13


 467              		.file 4 "Generated_Source\\PSoC5/cytypes.h"
 468              		.file 5 "Generated_Source\\PSoC5/isr_uart_rx.h"
 469              		.file 6 "Generated_Source\\PSoC5/UART_1.h"
 470              		.file 7 "Generated_Source\\PSoC5/PWM_1.h"
 471              		.file 8 "Generated_Source\\PSoC5/core_cm3.h"