ARM GAS  C:\Users\Viktor\AppData\Local\Temp\ccJgxCLt.s 			page 1


   1              		.syntax unified
   2              		.cpu cortex-m3
   3              		.fpu softvfp
   4              		.eabi_attribute 20, 1
   5              		.eabi_attribute 21, 1
   6              		.eabi_attribute 23, 3
   7              		.eabi_attribute 24, 1
   8              		.eabi_attribute 25, 1
   9              		.eabi_attribute 26, 1
  10              		.eabi_attribute 30, 1
  11              		.eabi_attribute 34, 1
  12              		.eabi_attribute 18, 4
  13              		.thumb
  14              		.syntax unified
  15              		.file	"main.c"
  16              		.text
  17              	.Ltext0:
  18              		.cfi_sections	.debug_frame
  19              		.section	.text.main,"ax",%progbits
  20              		.align	2
  21              		.global	main
  22              		.thumb
  23              		.thumb_func
  24              		.type	main, %function
  25              	main:
  26              	.LFB63:
  27              		.file 1 "main.c"
   1:main.c        **** /* ========================================
   2:main.c        ****  *
   3:main.c        ****  * Copyright YOUR COMPANY, THE YEAR
   4:main.c        ****  * All Rights Reserved
   5:main.c        ****  * UNPUBLISHED, LICENSED SOFTWARE.
   6:main.c        ****  *
   7:main.c        ****  * CONFIDENTIAL AND PROPRIETARY INFORMATION
   8:main.c        ****  * WHICH IS THE PROPERTY OF your company.
   9:main.c        ****  *
  10:main.c        ****  * ========================================
  11:main.c        **** */
  12:main.c        **** #include "project.h"
  13:main.c        **** #define forwards 0u
  14:main.c        **** #define backwards 1u
  15:main.c        **** 
  16:main.c        **** CY_ISR_PROTO(ISR_UART_rx_handler);
  17:main.c        **** void handleByteReceived(uint8_t byteReceived);
  18:main.c        **** void decreaseSpeed(void);
  19:main.c        **** void increaseSpeed(void);
  20:main.c        **** void driveForwards(void);
  21:main.c        **** void driveBackwards(void);
  22:main.c        **** void stop(void);
  23:main.c        **** 
  24:main.c        **** int main(void)
  25:main.c        **** {
  28              		.loc 1 25 0
  29              		.cfi_startproc
  30              		@ Volatile: function does not return.
  31              		@ args = 0, pretend = 0, frame = 0
  32              		@ frame_needed = 0, uses_anonymous_args = 0
ARM GAS  C:\Users\Viktor\AppData\Local\Temp\ccJgxCLt.s 			page 2


  33 0000 08B5     		push	{r3, lr}
  34              		.cfi_def_cfa_offset 8
  35              		.cfi_offset 3, -8
  36              		.cfi_offset 14, -4
  26:main.c        ****     CyGlobalIntEnable; /* Enable global interrupts. */
  37              		.loc 1 26 0
  38              		.syntax unified
  39              	@ 26 "main.c" 1
  40 0002 62B6     		CPSIE   i
  41              	@ 0 "" 2
  27:main.c        **** 
  28:main.c        ****     /* Place your initialization/startup code here (e.g. MyInst_Start()) */
  29:main.c        ****     isr_uart_rx_StartEx(ISR_UART_rx_handler);
  42              		.loc 1 29 0
  43              		.thumb
  44              		.syntax unified
  45 0004 0C48     		ldr	r0, .L4
  46 0006 FFF7FEFF 		bl	isr_uart_rx_StartEx
  47              	.LVL0:
  30:main.c        ****     UART_1_Start();
  48              		.loc 1 30 0
  49 000a FFF7FEFF 		bl	UART_1_Start
  50              	.LVL1:
  31:main.c        ****     PWM_1_Start();
  51              		.loc 1 31 0
  52 000e FFF7FEFF 		bl	PWM_1_Start
  53              	.LVL2:
  32:main.c        ****     
  33:main.c        ****     UART_1_PutString("DC-Motor-PWM application started\r\n");
  54              		.loc 1 33 0
  55 0012 0A48     		ldr	r0, .L4+4
  56 0014 FFF7FEFF 		bl	UART_1_PutString
  57              	.LVL3:
  34:main.c        ****     UART_1_PutString("0: Stop\r\n");
  58              		.loc 1 34 0
  59 0018 0948     		ldr	r0, .L4+8
  60 001a FFF7FEFF 		bl	UART_1_PutString
  61              	.LVL4:
  35:main.c        ****     UART_1_PutString("1: Drive forwards\r\n");
  62              		.loc 1 35 0
  63 001e 0948     		ldr	r0, .L4+12
  64 0020 FFF7FEFF 		bl	UART_1_PutString
  65              	.LVL5:
  36:main.c        ****     UART_1_PutString("2: Drive backwards\r\n");
  66              		.loc 1 36 0
  67 0024 0848     		ldr	r0, .L4+16
  68 0026 FFF7FEFF 		bl	UART_1_PutString
  69              	.LVL6:
  37:main.c        ****     UART_1_PutString("q: Decrease speed\r\n");
  70              		.loc 1 37 0
  71 002a 0848     		ldr	r0, .L4+20
  72 002c FFF7FEFF 		bl	UART_1_PutString
  73              	.LVL7:
  38:main.c        ****     UART_1_PutString("w: Increase speed\r\n");
  74              		.loc 1 38 0
  75 0030 0748     		ldr	r0, .L4+24
  76 0032 FFF7FEFF 		bl	UART_1_PutString
ARM GAS  C:\Users\Viktor\AppData\Local\Temp\ccJgxCLt.s 			page 3


  77              	.LVL8:
  78              	.L2:
  79 0036 FEE7     		b	.L2
  80              	.L5:
  81              		.align	2
  82              	.L4:
  83 0038 00000000 		.word	ISR_UART_rx_handler
  84 003c 00000000 		.word	.LC0
  85 0040 24000000 		.word	.LC1
  86 0044 30000000 		.word	.LC2
  87 0048 44000000 		.word	.LC3
  88 004c 5C000000 		.word	.LC4
  89 0050 70000000 		.word	.LC5
  90              		.cfi_endproc
  91              	.LFE63:
  92              		.size	main, .-main
  93              		.section	.text.decreaseSpeed,"ax",%progbits
  94              		.align	2
  95              		.global	decreaseSpeed
  96              		.thumb
  97              		.thumb_func
  98              		.type	decreaseSpeed, %function
  99              	decreaseSpeed:
 100              	.LFB66:
  39:main.c        **** 
  40:main.c        ****     for(;;)
  41:main.c        ****     {
  42:main.c        ****         /* Place your application code here. */
  43:main.c        ****     }
  44:main.c        **** }
  45:main.c        **** 
  46:main.c        **** CY_ISR(ISR_UART_rx_handler)
  47:main.c        **** {
  48:main.c        ****     uint8_t bytesToRead = UART_1_GetRxBufferSize();
  49:main.c        ****     while (bytesToRead > 0)
  50:main.c        ****     {
  51:main.c        ****         uint8_t byteReceived = UART_1_ReadRxData();
  52:main.c        ****         UART_1_WriteTxData(byteReceived); // echo back
  53:main.c        ****         
  54:main.c        ****         handleByteReceived(byteReceived);
  55:main.c        ****         
  56:main.c        ****         bytesToRead--;
  57:main.c        ****     }
  58:main.c        **** }
  59:main.c        **** 
  60:main.c        **** void handleByteReceived(uint8_t byteReceived)
  61:main.c        **** {
  62:main.c        ****     switch(byteReceived)
  63:main.c        ****     {
  64:main.c        ****         case 'q' :
  65:main.c        ****         {
  66:main.c        ****             decreaseSpeed();
  67:main.c        ****         }
  68:main.c        ****         break;
  69:main.c        ****         case 'w' :
  70:main.c        ****         {
  71:main.c        ****             increaseSpeed();
ARM GAS  C:\Users\Viktor\AppData\Local\Temp\ccJgxCLt.s 			page 4


  72:main.c        ****         }
  73:main.c        ****         break;
  74:main.c        ****         case '1' :
  75:main.c        ****         {
  76:main.c        ****             driveForwards();
  77:main.c        ****         }
  78:main.c        ****         break;
  79:main.c        ****         case '2' :
  80:main.c        ****         {
  81:main.c        ****             driveBackwards();
  82:main.c        ****         }
  83:main.c        ****         break;
  84:main.c        ****         case '0' :
  85:main.c        ****         {
  86:main.c        ****             stop();
  87:main.c        ****             
  88:main.c        ****         }
  89:main.c        ****         break;
  90:main.c        ****         default :
  91:main.c        ****         {
  92:main.c        ****             // nothing
  93:main.c        ****         }
  94:main.c        ****         break;
  95:main.c        ****     }
  96:main.c        **** }
  97:main.c        **** 
  98:main.c        **** void decreaseSpeed()
  99:main.c        **** {
 101              		.loc 1 99 0
 102              		.cfi_startproc
 103              		@ args = 0, pretend = 0, frame = 0
 104              		@ frame_needed = 0, uses_anonymous_args = 0
 105 0000 10B5     		push	{r4, lr}
 106              		.cfi_def_cfa_offset 8
 107              		.cfi_offset 4, -8
 108              		.cfi_offset 14, -4
 100:main.c        ****     uint8 duty = PWM_1_ReadCompare();
 109              		.loc 1 100 0
 110 0002 FFF7FEFF 		bl	PWM_1_ReadCompare
 111              	.LVL9:
 101:main.c        ****     if(duty > 0)
 112              		.loc 1 101 0
 113 0006 0446     		mov	r4, r0
 114 0008 10B1     		cbz	r0, .L7
 102:main.c        ****     {
 103:main.c        ****         UART_1_PutString("Decreasing speed\r\n");
 115              		.loc 1 103 0
 116 000a 0C48     		ldr	r0, .L12
 117              	.LVL10:
 118 000c FFF7FEFF 		bl	UART_1_PutString
 119              	.LVL11:
 120              	.L7:
 104:main.c        ****     }
 105:main.c        ****     if(duty >= 100)
 121              		.loc 1 105 0
 122 0010 632C     		cmp	r4, #99
 123 0012 03D9     		bls	.L8
ARM GAS  C:\Users\Viktor\AppData\Local\Temp\ccJgxCLt.s 			page 5


 106:main.c        ****     {
 107:main.c        ****         PWM_1_WriteCompare(90);
 124              		.loc 1 107 0
 125 0014 5A20     		movs	r0, #90
 126 0016 FFF7FEFF 		bl	PWM_1_WriteCompare
 127              	.LVL12:
 128 001a 10BD     		pop	{r4, pc}
 129              	.L8:
 108:main.c        ****         
 109:main.c        ****     }
 110:main.c        ****     else if(duty > 10)
 130              		.loc 1 110 0
 131 001c 0A2C     		cmp	r4, #10
 132 001e 05D9     		bls	.L10
 111:main.c        ****     {
 112:main.c        ****         PWM_1_WriteCompare(duty - 10);
 133              		.loc 1 112 0
 134 0020 A4F10A00 		sub	r0, r4, #10
 135 0024 C0B2     		uxtb	r0, r0
 136 0026 FFF7FEFF 		bl	PWM_1_WriteCompare
 137              	.LVL13:
 138 002a 10BD     		pop	{r4, pc}
 139              	.L10:
 113:main.c        ****     }
 114:main.c        ****     else
 115:main.c        ****     {
 116:main.c        ****         UART_1_PutString("Min speed achieved\r\n");
 140              		.loc 1 116 0
 141 002c 0448     		ldr	r0, .L12+4
 142 002e FFF7FEFF 		bl	UART_1_PutString
 143              	.LVL14:
 117:main.c        ****         PWM_1_WriteCompare(0);
 144              		.loc 1 117 0
 145 0032 0020     		movs	r0, #0
 146 0034 FFF7FEFF 		bl	PWM_1_WriteCompare
 147              	.LVL15:
 148 0038 10BD     		pop	{r4, pc}
 149              	.L13:
 150 003a 00BF     		.align	2
 151              	.L12:
 152 003c 84000000 		.word	.LC6
 153 0040 98000000 		.word	.LC7
 154              		.cfi_endproc
 155              	.LFE66:
 156              		.size	decreaseSpeed, .-decreaseSpeed
 157              		.section	.text.increaseSpeed,"ax",%progbits
 158              		.align	2
 159              		.global	increaseSpeed
 160              		.thumb
 161              		.thumb_func
 162              		.type	increaseSpeed, %function
 163              	increaseSpeed:
 164              	.LFB67:
 118:main.c        ****     }
 119:main.c        **** }
 120:main.c        **** 
 121:main.c        **** void increaseSpeed()
ARM GAS  C:\Users\Viktor\AppData\Local\Temp\ccJgxCLt.s 			page 6


 122:main.c        **** {
 165              		.loc 1 122 0
 166              		.cfi_startproc
 167              		@ args = 0, pretend = 0, frame = 0
 168              		@ frame_needed = 0, uses_anonymous_args = 0
 169 0000 10B5     		push	{r4, lr}
 170              		.cfi_def_cfa_offset 8
 171              		.cfi_offset 4, -8
 172              		.cfi_offset 14, -4
 123:main.c        ****     uint8 duty = PWM_1_ReadCompare();
 173              		.loc 1 123 0
 174 0002 FFF7FEFF 		bl	PWM_1_ReadCompare
 175              	.LVL16:
 176 0006 0446     		mov	r4, r0
 177              	.LVL17:
 124:main.c        ****     if(duty < 101)
 178              		.loc 1 124 0
 179 0008 6428     		cmp	r0, #100
 180 000a 02D8     		bhi	.L15
 125:main.c        ****     {
 126:main.c        ****         UART_1_PutString("Increasing speed\r\n");
 181              		.loc 1 126 0
 182 000c 0848     		ldr	r0, .L19
 183              	.LVL18:
 184 000e FFF7FEFF 		bl	UART_1_PutString
 185              	.LVL19:
 186              	.L15:
 127:main.c        ****     }
 128:main.c        ****     if(duty < 90)
 187              		.loc 1 128 0
 188 0012 592C     		cmp	r4, #89
 189 0014 05D8     		bhi	.L16
 129:main.c        ****     {
 130:main.c        ****         PWM_1_WriteCompare(duty + 10);
 190              		.loc 1 130 0
 191 0016 04F10A00 		add	r0, r4, #10
 192 001a C0B2     		uxtb	r0, r0
 193 001c FFF7FEFF 		bl	PWM_1_WriteCompare
 194              	.LVL20:
 195 0020 10BD     		pop	{r4, pc}
 196              	.L16:
 131:main.c        ****     }
 132:main.c        ****     else
 133:main.c        ****     {
 134:main.c        ****         UART_1_PutString("Max speed achieved\r\n");
 197              		.loc 1 134 0
 198 0022 0448     		ldr	r0, .L19+4
 199 0024 FFF7FEFF 		bl	UART_1_PutString
 200              	.LVL21:
 135:main.c        ****         PWM_1_WriteCompare(101);
 201              		.loc 1 135 0
 202 0028 6520     		movs	r0, #101
 203 002a FFF7FEFF 		bl	PWM_1_WriteCompare
 204              	.LVL22:
 205 002e 10BD     		pop	{r4, pc}
 206              	.L20:
 207              		.align	2
ARM GAS  C:\Users\Viktor\AppData\Local\Temp\ccJgxCLt.s 			page 7


 208              	.L19:
 209 0030 B0000000 		.word	.LC8
 210 0034 C4000000 		.word	.LC9
 211              		.cfi_endproc
 212              	.LFE67:
 213              		.size	increaseSpeed, .-increaseSpeed
 214              		.section	.text.driveForwards,"ax",%progbits
 215              		.align	2
 216              		.global	driveForwards
 217              		.thumb
 218              		.thumb_func
 219              		.type	driveForwards, %function
 220              	driveForwards:
 221              	.LFB68:
 136:main.c        ****     }
 137:main.c        **** }
 138:main.c        **** 
 139:main.c        **** void driveForwards()
 140:main.c        **** {
 222              		.loc 1 140 0
 223              		.cfi_startproc
 224              		@ args = 0, pretend = 0, frame = 0
 225              		@ frame_needed = 0, uses_anonymous_args = 0
 226 0000 08B5     		push	{r3, lr}
 227              		.cfi_def_cfa_offset 8
 228              		.cfi_offset 3, -8
 229              		.cfi_offset 14, -4
 141:main.c        ****     UART_1_PutString("Set direction: forwards\r\n");
 230              		.loc 1 141 0
 231 0002 0748     		ldr	r0, .L24
 232 0004 FFF7FEFF 		bl	UART_1_PutString
 233              	.LVL23:
 142:main.c        ****     if (Direction_Read()) {
 234              		.loc 1 142 0
 235 0008 FFF7FEFF 		bl	Direction_Read
 236              	.LVL24:
 237 000c 20B1     		cbz	r0, .L22
 143:main.c        ****         PWM_1_Stop();
 238              		.loc 1 143 0
 239 000e FFF7FEFF 		bl	PWM_1_Stop
 240              	.LVL25:
 144:main.c        ****         Direction_Write(forwards);
 241              		.loc 1 144 0
 242 0012 0020     		movs	r0, #0
 243 0014 FFF7FEFF 		bl	Direction_Write
 244              	.LVL26:
 245              	.L22:
 145:main.c        ****     }
 146:main.c        ****     PWM_1_Start();
 246              		.loc 1 146 0
 247 0018 FFF7FEFF 		bl	PWM_1_Start
 248              	.LVL27:
 249 001c 08BD     		pop	{r3, pc}
 250              	.L25:
 251 001e 00BF     		.align	2
 252              	.L24:
 253 0020 DC000000 		.word	.LC10
ARM GAS  C:\Users\Viktor\AppData\Local\Temp\ccJgxCLt.s 			page 8


 254              		.cfi_endproc
 255              	.LFE68:
 256              		.size	driveForwards, .-driveForwards
 257              		.section	.text.driveBackwards,"ax",%progbits
 258              		.align	2
 259              		.global	driveBackwards
 260              		.thumb
 261              		.thumb_func
 262              		.type	driveBackwards, %function
 263              	driveBackwards:
 264              	.LFB69:
 147:main.c        **** }
 148:main.c        **** 
 149:main.c        **** void driveBackwards()
 150:main.c        **** {
 265              		.loc 1 150 0
 266              		.cfi_startproc
 267              		@ args = 0, pretend = 0, frame = 0
 268              		@ frame_needed = 0, uses_anonymous_args = 0
 269 0000 08B5     		push	{r3, lr}
 270              		.cfi_def_cfa_offset 8
 271              		.cfi_offset 3, -8
 272              		.cfi_offset 14, -4
 151:main.c        ****     UART_1_PutString("Set direction: backwards\r\n");
 273              		.loc 1 151 0
 274 0002 0748     		ldr	r0, .L29
 275 0004 FFF7FEFF 		bl	UART_1_PutString
 276              	.LVL28:
 152:main.c        ****     if (!Direction_Read()) {
 277              		.loc 1 152 0
 278 0008 FFF7FEFF 		bl	Direction_Read
 279              	.LVL29:
 280 000c 20B9     		cbnz	r0, .L27
 153:main.c        ****         PWM_1_Stop();
 281              		.loc 1 153 0
 282 000e FFF7FEFF 		bl	PWM_1_Stop
 283              	.LVL30:
 154:main.c        ****         Direction_Write(backwards);
 284              		.loc 1 154 0
 285 0012 0120     		movs	r0, #1
 286 0014 FFF7FEFF 		bl	Direction_Write
 287              	.LVL31:
 288              	.L27:
 155:main.c        ****     }
 156:main.c        ****     PWM_1_Start();
 289              		.loc 1 156 0
 290 0018 FFF7FEFF 		bl	PWM_1_Start
 291              	.LVL32:
 292 001c 08BD     		pop	{r3, pc}
 293              	.L30:
 294 001e 00BF     		.align	2
 295              	.L29:
 296 0020 F8000000 		.word	.LC11
 297              		.cfi_endproc
 298              	.LFE69:
 299              		.size	driveBackwards, .-driveBackwards
 300              		.section	.text.stop,"ax",%progbits
ARM GAS  C:\Users\Viktor\AppData\Local\Temp\ccJgxCLt.s 			page 9


 301              		.align	2
 302              		.global	stop
 303              		.thumb
 304              		.thumb_func
 305              		.type	stop, %function
 306              	stop:
 307              	.LFB70:
 157:main.c        **** }
 158:main.c        **** 
 159:main.c        **** void stop()
 160:main.c        **** {
 308              		.loc 1 160 0
 309              		.cfi_startproc
 310              		@ args = 0, pretend = 0, frame = 0
 311              		@ frame_needed = 0, uses_anonymous_args = 0
 312 0000 08B5     		push	{r3, lr}
 313              		.cfi_def_cfa_offset 8
 314              		.cfi_offset 3, -8
 315              		.cfi_offset 14, -4
 161:main.c        ****     UART_1_PutString("Stop\r\n");
 316              		.loc 1 161 0
 317 0002 0348     		ldr	r0, .L33
 318 0004 FFF7FEFF 		bl	UART_1_PutString
 319              	.LVL33:
 162:main.c        ****     PWM_1_Stop();
 320              		.loc 1 162 0
 321 0008 FFF7FEFF 		bl	PWM_1_Stop
 322              	.LVL34:
 323 000c 08BD     		pop	{r3, pc}
 324              	.L34:
 325 000e 00BF     		.align	2
 326              	.L33:
 327 0010 14010000 		.word	.LC12
 328              		.cfi_endproc
 329              	.LFE70:
 330              		.size	stop, .-stop
 331              		.section	.text.handleByteReceived,"ax",%progbits
 332              		.align	2
 333              		.global	handleByteReceived
 334              		.thumb
 335              		.thumb_func
 336              		.type	handleByteReceived, %function
 337              	handleByteReceived:
 338              	.LFB65:
  61:main.c        ****     switch(byteReceived)
 339              		.loc 1 61 0
 340              		.cfi_startproc
 341              		@ args = 0, pretend = 0, frame = 0
 342              		@ frame_needed = 0, uses_anonymous_args = 0
 343              	.LVL35:
 344 0000 08B5     		push	{r3, lr}
 345              		.cfi_def_cfa_offset 8
 346              		.cfi_offset 3, -8
 347              		.cfi_offset 14, -4
  62:main.c        ****     {
 348              		.loc 1 62 0
 349 0002 3228     		cmp	r0, #50
ARM GAS  C:\Users\Viktor\AppData\Local\Temp\ccJgxCLt.s 			page 10


 350 0004 13D0     		beq	.L37
 351 0006 04D8     		bhi	.L38
 352 0008 3028     		cmp	r0, #48
 353 000a 13D0     		beq	.L39
 354 000c 3128     		cmp	r0, #49
 355 000e 0BD0     		beq	.L40
 356 0010 08BD     		pop	{r3, pc}
 357              	.L38:
 358 0012 7128     		cmp	r0, #113
 359 0014 02D0     		beq	.L41
 360 0016 7728     		cmp	r0, #119
 361 0018 03D0     		beq	.L42
 362 001a 08BD     		pop	{r3, pc}
 363              	.L41:
  66:main.c        ****         }
 364              		.loc 1 66 0
 365 001c FFF7FEFF 		bl	decreaseSpeed
 366              	.LVL36:
  68:main.c        ****         case 'w' :
 367              		.loc 1 68 0
 368 0020 08BD     		pop	{r3, pc}
 369              	.LVL37:
 370              	.L42:
  71:main.c        ****         }
 371              		.loc 1 71 0
 372 0022 FFF7FEFF 		bl	increaseSpeed
 373              	.LVL38:
  73:main.c        ****         case '1' :
 374              		.loc 1 73 0
 375 0026 08BD     		pop	{r3, pc}
 376              	.LVL39:
 377              	.L40:
  76:main.c        ****         }
 378              		.loc 1 76 0
 379 0028 FFF7FEFF 		bl	driveForwards
 380              	.LVL40:
  78:main.c        ****         case '2' :
 381              		.loc 1 78 0
 382 002c 08BD     		pop	{r3, pc}
 383              	.LVL41:
 384              	.L37:
  81:main.c        ****         }
 385              		.loc 1 81 0
 386 002e FFF7FEFF 		bl	driveBackwards
 387              	.LVL42:
  83:main.c        ****         case '0' :
 388              		.loc 1 83 0
 389 0032 08BD     		pop	{r3, pc}
 390              	.LVL43:
 391              	.L39:
  86:main.c        ****             
 392              		.loc 1 86 0
 393 0034 FFF7FEFF 		bl	stop
 394              	.LVL44:
 395 0038 08BD     		pop	{r3, pc}
 396              		.cfi_endproc
 397              	.LFE65:
ARM GAS  C:\Users\Viktor\AppData\Local\Temp\ccJgxCLt.s 			page 11


 398              		.size	handleByteReceived, .-handleByteReceived
 399 003a 00BF     		.section	.text.ISR_UART_rx_handler,"ax",%progbits
 400              		.align	2
 401              		.global	ISR_UART_rx_handler
 402              		.thumb
 403              		.thumb_func
 404              		.type	ISR_UART_rx_handler, %function
 405              	ISR_UART_rx_handler:
 406              	.LFB64:
  47:main.c        ****     uint8_t bytesToRead = UART_1_GetRxBufferSize();
 407              		.loc 1 47 0
 408              		.cfi_startproc
 409              		@ args = 0, pretend = 0, frame = 0
 410              		@ frame_needed = 0, uses_anonymous_args = 0
 411 0000 38B5     		push	{r3, r4, r5, lr}
 412              		.cfi_def_cfa_offset 16
 413              		.cfi_offset 3, -16
 414              		.cfi_offset 4, -12
 415              		.cfi_offset 5, -8
 416              		.cfi_offset 14, -4
  48:main.c        ****     while (bytesToRead > 0)
 417              		.loc 1 48 0
 418 0002 FFF7FEFF 		bl	UART_1_GetRxBufferSize
 419              	.LVL45:
 420 0006 0446     		mov	r4, r0
 421              	.LVL46:
  49:main.c        ****     {
 422              		.loc 1 49 0
 423 0008 09E0     		b	.L45
 424              	.L46:
 425              	.LBB2:
  51:main.c        ****         UART_1_WriteTxData(byteReceived); // echo back
 426              		.loc 1 51 0
 427 000a FFF7FEFF 		bl	UART_1_ReadRxData
 428              	.LVL47:
 429 000e 0546     		mov	r5, r0
 430              	.LVL48:
  52:main.c        ****         
 431              		.loc 1 52 0
 432 0010 FFF7FEFF 		bl	UART_1_WriteTxData
 433              	.LVL49:
  54:main.c        ****         
 434              		.loc 1 54 0
 435 0014 2846     		mov	r0, r5
 436 0016 FFF7FEFF 		bl	handleByteReceived
 437              	.LVL50:
  56:main.c        ****     }
 438              		.loc 1 56 0
 439 001a 013C     		subs	r4, r4, #1
 440              	.LVL51:
 441 001c E4B2     		uxtb	r4, r4
 442              	.LVL52:
 443              	.L45:
 444              	.LBE2:
  49:main.c        ****     {
 445              		.loc 1 49 0
 446 001e 002C     		cmp	r4, #0
ARM GAS  C:\Users\Viktor\AppData\Local\Temp\ccJgxCLt.s 			page 12


 447 0020 F3D1     		bne	.L46
  58:main.c        **** 
 448              		.loc 1 58 0
 449 0022 38BD     		pop	{r3, r4, r5, pc}
 450              		.cfi_endproc
 451              	.LFE64:
 452              		.size	ISR_UART_rx_handler, .-ISR_UART_rx_handler
 453              		.section	.rodata.str1.4,"aMS",%progbits,1
 454              		.align	2
 455              	.LC0:
 456 0000 44432D4D 		.ascii	"DC-Motor-PWM application started\015\012\000"
 456      6F746F72 
 456      2D50574D 
 456      20617070 
 456      6C696361 
 457 0023 00       		.space	1
 458              	.LC1:
 459 0024 303A2053 		.ascii	"0: Stop\015\012\000"
 459      746F700D 
 459      0A00
 460 002e 0000     		.space	2
 461              	.LC2:
 462 0030 313A2044 		.ascii	"1: Drive forwards\015\012\000"
 462      72697665 
 462      20666F72 
 462      77617264 
 462      730D0A00 
 463              	.LC3:
 464 0044 323A2044 		.ascii	"2: Drive backwards\015\012\000"
 464      72697665 
 464      20626163 
 464      6B776172 
 464      64730D0A 
 465 0059 000000   		.space	3
 466              	.LC4:
 467 005c 713A2044 		.ascii	"q: Decrease speed\015\012\000"
 467      65637265 
 467      61736520 
 467      73706565 
 467      640D0A00 
 468              	.LC5:
 469 0070 773A2049 		.ascii	"w: Increase speed\015\012\000"
 469      6E637265 
 469      61736520 
 469      73706565 
 469      640D0A00 
 470              	.LC6:
 471 0084 44656372 		.ascii	"Decreasing speed\015\012\000"
 471      65617369 
 471      6E672073 
 471      70656564 
 471      0D0A00
 472 0097 00       		.space	1
 473              	.LC7:
 474 0098 4D696E20 		.ascii	"Min speed achieved\015\012\000"
 474      73706565 
 474      64206163 
ARM GAS  C:\Users\Viktor\AppData\Local\Temp\ccJgxCLt.s 			page 13


 474      68696576 
 474      65640D0A 
 475 00ad 000000   		.space	3
 476              	.LC8:
 477 00b0 496E6372 		.ascii	"Increasing speed\015\012\000"
 477      65617369 
 477      6E672073 
 477      70656564 
 477      0D0A00
 478 00c3 00       		.space	1
 479              	.LC9:
 480 00c4 4D617820 		.ascii	"Max speed achieved\015\012\000"
 480      73706565 
 480      64206163 
 480      68696576 
 480      65640D0A 
 481 00d9 000000   		.space	3
 482              	.LC10:
 483 00dc 53657420 		.ascii	"Set direction: forwards\015\012\000"
 483      64697265 
 483      6374696F 
 483      6E3A2066 
 483      6F727761 
 484 00f6 0000     		.space	2
 485              	.LC11:
 486 00f8 53657420 		.ascii	"Set direction: backwards\015\012\000"
 486      64697265 
 486      6374696F 
 486      6E3A2062 
 486      61636B77 
 487 0113 00       		.space	1
 488              	.LC12:
 489 0114 53746F70 		.ascii	"Stop\015\012\000"
 489      0D0A00
 490              		.text
 491              	.Letext0:
 492              		.file 2 "c:\\program files (x86)\\cypress\\psoc creator\\4.2\\psoc creator\\import\\gnu\\arm\\5.4.
 493              		.file 3 "c:\\program files (x86)\\cypress\\psoc creator\\4.2\\psoc creator\\import\\gnu\\arm\\5.4.
 494              		.file 4 "Generated_Source\\PSoC5/cytypes.h"
 495              		.file 5 "Generated_Source\\PSoC5/isr_uart_rx.h"
 496              		.file 6 "Generated_Source\\PSoC5/UART_1.h"
 497              		.file 7 "Generated_Source\\PSoC5/PWM_1.h"
 498              		.file 8 "Generated_Source\\PSoC5/Direction.h"
 499              		.file 9 "Generated_Source\\PSoC5/core_cm3.h"